target datalayout = "e-m:e-p270:32:32-p271:32:32-p272:64:64-i64:64-i128:128-f80:128-n8:16:32:64-S128"
target triple = "x86_64-pc-linux-gnu"

%struct.FunctionCallInfoBaseData = type { ptr, ptr, ptr, i32, i8, i16, [0 x %struct.NullableDatum] }
%struct.NullableDatum = type { i64, i8 }

; Function Attrs: inlinehint nounwind uwtable
define internal ptr @DatumGetPointer(i64 noundef %0) #2 {
  %2 = alloca i64, align 8
  store i64 %0, ptr %2, align 8
  %3 = load i64, ptr %2, align 8
  %4 = inttoptr i64 %3 to ptr
  ret ptr %4
}

; Function Attrs: inlinehint nounwind uwtable
define internal i64 @Int32GetDatum(i32 noundef %0) #2 {
  %2 = alloca i32, align 4
  store i32 %0, ptr %2, align 4
  %3 = load i32, ptr %2, align 4
  %4 = sext i32 %3 to i64
  ret i64 %4
}

; Function Attrs: inlinehint nounwind uwtable
define internal zeroext i1 @DatumGetBool(i64 noundef %0) #2 {
  %2 = alloca i64, align 8
  store i64 %0, ptr %2, align 8
  %3 = load i64, ptr %2, align 8
  %4 = icmp ne i64 %3, 0
  ret i1 %4
}

; Function Attrs: inlinehint nounwind uwtable
define internal i32 @DatumGetInt32(i64 noundef %0) #2 {
  %2 = alloca i64, align 8
  store i64 %0, ptr %2, align 8
  %3 = load i64, ptr %2, align 8
  %4 = trunc i64 %3 to i32
  ret i32 %4
}

; Function Attrs: inlinehint nounwind uwtable
define internal ptr @DatumGetCString(i64 noundef %0) #2 {
  %2 = alloca i64, align 8
  store i64 %0, ptr %2, align 8
  %3 = load i64, ptr %2, align 8
  %4 = call ptr @DatumGetPointer(i64 noundef %3)
  ret ptr %4
}

; Function Attrs: nounwind uwtable
define i64 @iso8859_1_to_utf8(ptr noundef %0) #0 {
  %2 = alloca ptr, align 8
  %3 = alloca ptr, align 8
  %4 = alloca ptr, align 8
  %5 = alloca i32, align 4
  %6 = alloca i8, align 1
  %7 = alloca ptr, align 8
  %8 = alloca i16, align 2
  store ptr %0, ptr %2, align 8
  call void @llvm.lifetime.start.p0(i64 8, ptr %3) #5
  %9 = load ptr, ptr %2, align 8
  %10 = getelementptr inbounds nuw %struct.FunctionCallInfoBaseData, ptr %9, i32 0, i32 6
  %11 = getelementptr inbounds [0 x %struct.NullableDatum], ptr %10, i64 0, i64 2
  %12 = getelementptr inbounds nuw %struct.NullableDatum, ptr %11, i32 0, i32 0
  %13 = load i64, ptr %12, align 8
  %14 = call ptr @DatumGetCString(i64 noundef %13)
  store ptr %14, ptr %3, align 8
  call void @llvm.lifetime.start.p0(i64 8, ptr %4) #5
  %15 = load ptr, ptr %2, align 8
  %16 = getelementptr inbounds nuw %struct.FunctionCallInfoBaseData, ptr %15, i32 0, i32 6
  %17 = getelementptr inbounds [0 x %struct.NullableDatum], ptr %16, i64 0, i64 3
  %18 = getelementptr inbounds nuw %struct.NullableDatum, ptr %17, i32 0, i32 0
  %19 = load i64, ptr %18, align 8
  %20 = call ptr @DatumGetCString(i64 noundef %19)
  store ptr %20, ptr %4, align 8
  call void @llvm.lifetime.start.p0(i64 4, ptr %5) #5
  %21 = load ptr, ptr %2, align 8
  %22 = getelementptr inbounds nuw %struct.FunctionCallInfoBaseData, ptr %21, i32 0, i32 6
  %23 = getelementptr inbounds [0 x %struct.NullableDatum], ptr %22, i64 0, i64 4
  %24 = getelementptr inbounds nuw %struct.NullableDatum, ptr %23, i32 0, i32 0
  %25 = load i64, ptr %24, align 8
  %26 = call i32 @DatumGetInt32(i64 noundef %25)
  store i32 %26, ptr %5, align 4
  call void @llvm.lifetime.start.p0(i64 1, ptr %6) #5
  %27 = load ptr, ptr %2, align 8
  %28 = getelementptr inbounds nuw %struct.FunctionCallInfoBaseData, ptr %27, i32 0, i32 6
  %29 = getelementptr inbounds [0 x %struct.NullableDatum], ptr %28, i64 0, i64 5
  %30 = getelementptr inbounds nuw %struct.NullableDatum, ptr %29, i32 0, i32 0
  %31 = load i64, ptr %30, align 8
  %32 = call zeroext i1 @DatumGetBool(i64 noundef %31)
  %33 = zext i1 %32 to i8
  store i8 %33, ptr %6, align 1
  call void @llvm.lifetime.start.p0(i64 8, ptr %7) #5
  %34 = load ptr, ptr %3, align 8
  store ptr %34, ptr %7, align 8
  call void @llvm.lifetime.start.p0(i64 2, ptr %8) #5
  %35 = load ptr, ptr %2, align 8
  %36 = getelementptr inbounds nuw %struct.FunctionCallInfoBaseData, ptr %35, i32 0, i32 6
  %37 = getelementptr inbounds [0 x %struct.NullableDatum], ptr %36, i64 0, i64 0
  %38 = getelementptr inbounds nuw %struct.NullableDatum, ptr %37, i32 0, i32 0
  %39 = load i64, ptr %38, align 8
  %40 = call i32 @DatumGetInt32(i64 noundef %39)
  %41 = load ptr, ptr %2, align 8
  %42 = getelementptr inbounds nuw %struct.FunctionCallInfoBaseData, ptr %41, i32 0, i32 6
  %43 = getelementptr inbounds [0 x %struct.NullableDatum], ptr %42, i64 0, i64 1
  %44 = getelementptr inbounds nuw %struct.NullableDatum, ptr %43, i32 0, i32 0
  %45 = load i64, ptr %44, align 8
  %46 = call i32 @DatumGetInt32(i64 noundef %45)
  %47 = load ptr, ptr %2, align 8
  %48 = getelementptr inbounds nuw %struct.FunctionCallInfoBaseData, ptr %47, i32 0, i32 6
  %49 = getelementptr inbounds [0 x %struct.NullableDatum], ptr %48, i64 0, i64 4
  %50 = getelementptr inbounds nuw %struct.NullableDatum, ptr %49, i32 0, i32 0
  %51 = load i64, ptr %50, align 8
  %52 = call i32 @DatumGetInt32(i64 noundef %51)
  call void @check_encoding_conversion_args(i32 noundef %40, i32 noundef %46, i32 noundef %52, i32 noundef 8, i32 noundef 6)
  br label %53

53:                                               ; preds = %96, %1
  %54 = load i32, ptr %5, align 4
  %55 = icmp sgt i32 %54, 0
  br i1 %55, label %56, label %101

56:                                               ; preds = %53
  %57 = load ptr, ptr %3, align 8
  %58 = load i8, ptr %57, align 1
  %59 = zext i8 %58 to i16
  store i16 %59, ptr %8, align 2
  %60 = load i16, ptr %8, align 2
  %61 = zext i16 %60 to i32
  %62 = icmp eq i32 %61, 0
  br i1 %62, label %63, label %70

63:                                               ; preds = %56
  %64 = load i8, ptr %6, align 1, !range !3, !noundef !4
  %65 = trunc i8 %64 to i1
  br i1 %65, label %66, label %67

66:                                               ; preds = %63
  br label %101

67:                                               ; preds = %63
  %68 = load ptr, ptr %3, align 8
  %69 = load i32, ptr %5, align 4
  call void @report_invalid_encoding(i32 noundef 8, ptr noundef %68, i32 noundef %69) #6
  unreachable

70:                                               ; preds = %56
  %71 = load i16, ptr %8, align 2
  %72 = trunc i16 %71 to i8
  %73 = zext i8 %72 to i32
  %74 = and i32 %73, 128
  %75 = icmp ne i32 %74, 0
  br i1 %75, label %81, label %76

76:                                               ; preds = %70
  %77 = load i16, ptr %8, align 2
  %78 = trunc i16 %77 to i8
  %79 = load ptr, ptr %4, align 8
  %80 = getelementptr inbounds nuw i8, ptr %79, i32 1
  store ptr %80, ptr %4, align 8
  store i8 %78, ptr %79, align 1
  br label %96

81:                                               ; preds = %70
  %82 = load i16, ptr %8, align 2
  %83 = zext i16 %82 to i32
  %84 = ashr i32 %83, 6
  %85 = or i32 %84, 192
  %86 = trunc i32 %85 to i8
  %87 = load ptr, ptr %4, align 8
  %88 = getelementptr inbounds nuw i8, ptr %87, i32 1
  store ptr %88, ptr %4, align 8
  store i8 %86, ptr %87, align 1
  %89 = load i16, ptr %8, align 2
  %90 = zext i16 %89 to i32
  %91 = and i32 %90, 63
  %92 = or i32 %91, 128
  %93 = trunc i32 %92 to i8
  %94 = load ptr, ptr %4, align 8
  %95 = getelementptr inbounds nuw i8, ptr %94, i32 1
  store ptr %95, ptr %4, align 8
  store i8 %93, ptr %94, align 1
  br label %96

96:                                               ; preds = %81, %76
  %97 = load ptr, ptr %3, align 8
  %98 = getelementptr inbounds nuw i8, ptr %97, i32 1
  store ptr %98, ptr %3, align 8
  %99 = load i32, ptr %5, align 4
  %100 = add i32 %99, -1
  store i32 %100, ptr %5, align 4
  br label %53, !llvm.loop !5

101:                                              ; preds = %66, %53
  %102 = load ptr, ptr %4, align 8
  store i8 0, ptr %102, align 1
  %103 = load ptr, ptr %3, align 8
  %104 = load ptr, ptr %7, align 8
  %105 = ptrtoint ptr %103 to i64
  %106 = ptrtoint ptr %104 to i64
  %107 = sub i64 %105, %106
  %108 = trunc i64 %107 to i32
  %109 = call i64 @Int32GetDatum(i32 noundef %108)
  call void @llvm.lifetime.end.p0(i64 2, ptr %8) #5
  call void @llvm.lifetime.end.p0(i64 8, ptr %7) #5
  call void @llvm.lifetime.end.p0(i64 1, ptr %6) #5
  call void @llvm.lifetime.end.p0(i64 4, ptr %5) #5
  call void @llvm.lifetime.end.p0(i64 8, ptr %4) #5
  call void @llvm.lifetime.end.p0(i64 8, ptr %3) #5
  ret i64 %109
}