; Function Attrs: nounwind uwtable
define range(i64 -2147483648, 2147483648) i64 @iso8859_1_to_utf8(ptr noundef readonly captures(none) %0) local_unnamed_addr #1 {
  %2 = getelementptr inbounds nuw i8, ptr %0, i64 32
  %3 = getelementptr inbounds nuw i8, ptr %0, i64 64
  %4 = load i64, ptr %3, align 8
  %5 = inttoptr i64 %4 to ptr
  %6 = getelementptr inbounds nuw i8, ptr %0, i64 80
  %7 = load i64, ptr %6, align 8
  %8 = inttoptr i64 %7 to ptr
  %9 = getelementptr inbounds nuw i8, ptr %0, i64 96
  %10 = load i64, ptr %9, align 8
  %11 = trunc i64 %10 to i32
  %12 = getelementptr inbounds nuw i8, ptr %0, i64 112
  %13 = load i64, ptr %12, align 8
  %.not28 = icmp eq i64 %13, 0
  %14 = load i64, ptr %2, align 8
  %15 = trunc i64 %14 to i32
  %16 = getelementptr inbounds nuw i8, ptr %0, i64 48
  %17 = load i64, ptr %16, align 8
  %18 = trunc i64 %17 to i32
  tail call void @check_encoding_conversion_args(i32 noundef %15, i32 noundef %18, i32 noundef %11, i32 noundef 8, i32 noundef 6) #4
  %19 = icmp sgt i32 %11, 0
  br i1 %19, label %.lr.ph, label %.loopexit

.lr.ph:                                           ; preds = %1, %33
  %.036 = phi ptr [ %34, %33 ], [ %5, %1 ]
  %.02535 = phi ptr [ %.1, %33 ], [ %8, %1 ]
  %.02634 = phi i32 [ %35, %33 ], [ %11, %1 ]
  %20 = load i8, ptr %.036, align 1
  %21 = icmp eq i8 %20, 0
  br i1 %21, label %22, label %24

22:                                               ; preds = %.lr.ph
  br i1 %.not28, label %23, label %.loopexit

23:                                               ; preds = %22
  tail call void @report_invalid_encoding(i32 noundef 8, ptr noundef nonnull %.036, i32 noundef %.02634) #5
  unreachable

24:                                               ; preds = %.lr.ph
  %.not = icmp sgt i8 %20, -1
  br i1 %.not, label %25, label %27

25:                                               ; preds = %24
  %26 = getelementptr inbounds nuw i8, ptr %.02535, i64 1
  br label %33

27:                                               ; preds = %24
  %28 = lshr i8 %20, 6
  %29 = or disjoint i8 %28, -64
  %30 = getelementptr inbounds nuw i8, ptr %.02535, i64 1
  %31 = and i8 %20, -65
  %32 = getelementptr inbounds nuw i8, ptr %.02535, i64 2
  store i8 %31, ptr %30, align 1
  br label %33

33:                                               ; preds = %27, %25
  %.sink = phi i8 [ %20, %25 ], [ %29, %27 ]
  %.1 = phi ptr [ %26, %25 ], [ %32, %27 ]
  store i8 %.sink, ptr %.02535, align 1
  %34 = getelementptr inbounds nuw i8, ptr %.036, i64 1
  %35 = add nsw i32 %.02634, -1
  %36 = icmp sgt i32 %.02634, 1
  br i1 %36, label %.lr.ph, label %.loopexit, !llvm.loop !3

.loopexit:                                        ; preds = %33, %1, %22
  %.02532 = phi ptr [ %.02535, %22 ], [ %8, %1 ], [ %.1, %33 ]
  %.030 = phi ptr [ %.036, %22 ], [ %5, %1 ], [ %34, %33 ]
  store i8 0, ptr %.02532, align 1
  %37 = ptrtoint ptr %.030 to i64
  %38 = sub i64 %37, %4
  %sext = shl i64 %38, 32
  %39 = ashr exact i64 %sext, 32
  ret i64 %39
}